target datalayout = "e-m:e-p270:32:32-p271:32:32-p272:64:64-i64:64-i128:128-f80:128-n8:16:32:64-S128"
target triple = "x86_64-pc-linux-gnu"

%struct.saucy = type { i32, ptr, ptr, ptr, ptr, %struct.coloring, %struct.coloring, ptr, ptr, ptr, ptr, ptr, i32, i32, ptr, i32, ptr, ptr, ptr, ptr, ptr, ptr, ptr, i32, i32, ptr, i32, ptr, i32, i32, ptr, ptr, ptr, ptr, ptr, ptr, ptr, ptr, ptr, ptr, i32, ptr, ptr, ptr, i32, ptr, i32, ptr, ptr, ptr, ptr, i32, ptr, ptr, i32, ptr, ptr, ptr, ptr, ptr, ptr, ptr, ptr, ptr, ptr, ptr, ptr, ptr, ptr, ptr, ptr, ptr, ptr, ptr, ptr, ptr, ptr, double, i32, i32, i32, ptr, ptr, ptr, ptr }
%struct.coloring = type { ptr, ptr, ptr, ptr }

; Function Attrs: nounwind uwtable
define internal void @add_diffnon(ptr noundef %0, i32 noundef %1) #0 {
  %3 = alloca ptr, align 8
  %4 = alloca i32, align 4
  store ptr %0, ptr %3, align 8
  store i32 %1, ptr %4, align 4
  %5 = load ptr, ptr %3, align 8
  %6 = getelementptr inbounds %struct.saucy, ptr %5, i32 0, i32 54
  %7 = load i32, ptr %6, align 8
  %8 = icmp eq i32 %7, -1
  br i1 %8, label %9, label %10

9:                                                ; preds = %2
  br label %30

10:                                               ; preds = %2
  %11 = load ptr, ptr %3, align 8
  %12 = getelementptr inbounds %struct.saucy, ptr %11, i32 0, i32 54
  %13 = load i32, ptr %12, align 8
  %14 = load ptr, ptr %3, align 8
  %15 = getelementptr inbounds %struct.saucy, ptr %14, i32 0, i32 53
  %16 = load ptr, ptr %15, align 8
  %17 = load i32, ptr %4, align 4
  %18 = sext i32 %17 to i64
  %19 = getelementptr inbounds i32, ptr %16, i64 %18
  store i32 %13, ptr %19, align 4
  %20 = load i32, ptr %4, align 4
  %21 = load ptr, ptr %3, align 8
  %22 = getelementptr inbounds %struct.saucy, ptr %21, i32 0, i32 52
  %23 = load ptr, ptr %22, align 8
  %24 = load ptr, ptr %3, align 8
  %25 = getelementptr inbounds %struct.saucy, ptr %24, i32 0, i32 54
  %26 = load i32, ptr %25, align 8
  %27 = add nsw i32 %26, 1
  store i32 %27, ptr %25, align 8
  %28 = sext i32 %26 to i64
  %29 = getelementptr inbounds i32, ptr %23, i64 %28
  store i32 %20, ptr %29, align 4
  br label %30

30:                                               ; preds = %10, %9
  ret void
}

; Function Attrs: nounwind uwtable
define internal void @eat_pair(ptr noundef %0, i32 noundef %1) #0 {
  %3 = alloca ptr, align 8
  %4 = alloca i32, align 4
  %5 = alloca i32, align 4
  store ptr %0, ptr %3, align 8
  store i32 %1, ptr %4, align 4
  %6 = load ptr, ptr %3, align 8
  %7 = getelementptr inbounds %struct.saucy, ptr %6, i32 0, i32 49
  %8 = load ptr, ptr %7, align 8
  %9 = load ptr, ptr %3, align 8
  %10 = getelementptr inbounds %struct.saucy, ptr %9, i32 0, i32 51
  %11 = load i32, ptr %10, align 8
  %12 = add nsw i32 %11, -1
  store i32 %12, ptr %10, align 8
  %13 = sext i32 %12 to i64
  %14 = getelementptr inbounds i32, ptr %8, i64 %13
  %15 = load i32, ptr %14, align 4
  store i32 %15, ptr %5, align 4
  %16 = load i32, ptr %5, align 4
  %17 = load ptr, ptr %3, align 8
  %18 = getelementptr inbounds %struct.saucy, ptr %17, i32 0, i32 49
  %19 = load ptr, ptr %18, align 8
  %20 = load ptr, ptr %3, align 8
  %21 = getelementptr inbounds %struct.saucy, ptr %20, i32 0, i32 50
  %22 = load ptr, ptr %21, align 8
  %23 = load i32, ptr %4, align 4
  %24 = sext i32 %23 to i64
  %25 = getelementptr inbounds i32, ptr %22, i64 %24
  %26 = load i32, ptr %25, align 4
  %27 = sext i32 %26 to i64
  %28 = getelementptr inbounds i32, ptr %19, i64 %27
  store i32 %16, ptr %28, align 4
  %29 = load ptr, ptr %3, align 8
  %30 = getelementptr inbounds %struct.saucy, ptr %29, i32 0, i32 50
  %31 = load ptr, ptr %30, align 8
  %32 = load i32, ptr %4, align 4
  %33 = sext i32 %32 to i64
  %34 = getelementptr inbounds i32, ptr %31, i64 %33
  %35 = load i32, ptr %34, align 4
  %36 = load ptr, ptr %3, align 8
  %37 = getelementptr inbounds %struct.saucy, ptr %36, i32 0, i32 50
  %38 = load ptr, ptr %37, align 8
  %39 = load i32, ptr %5, align 4
  %40 = sext i32 %39 to i64
  %41 = getelementptr inbounds i32, ptr %38, i64 %40
  store i32 %35, ptr %41, align 4
  %42 = load ptr, ptr %3, align 8
  %43 = getelementptr inbounds %struct.saucy, ptr %42, i32 0, i32 50
  %44 = load ptr, ptr %43, align 8
  %45 = load i32, ptr %4, align 4
  %46 = sext i32 %45 to i64
  %47 = getelementptr inbounds i32, ptr %44, i64 %46
  store i32 -1, ptr %47, align 4
  ret void
}

; Function Attrs: nounwind uwtable
define internal i32 @is_a_pair(ptr noundef %0, i32 noundef %1) #0 {
  %3 = alloca ptr, align 8
  %4 = alloca i32, align 4
  store ptr %0, ptr %3, align 8
  store i32 %1, ptr %4, align 4
  %5 = load ptr, ptr %3, align 8
  %6 = getelementptr inbounds %struct.saucy, ptr %5, i32 0, i32 50
  %7 = load ptr, ptr %6, align 8
  %8 = load i32, ptr %4, align 4
  %9 = sext i32 %8 to i64
  %10 = getelementptr inbounds i32, ptr %7, i64 %9
  %11 = load i32, ptr %10, align 4
  %12 = icmp ne i32 %11, -1
  %13 = zext i1 %12 to i32
  ret i32 %13
}

; Function Attrs: nounwind uwtable
define internal void @add_pair(ptr noundef %0, i32 noundef %1) #0 {
  %3 = alloca ptr, align 8
  %4 = alloca i32, align 4
  store ptr %0, ptr %3, align 8
  store i32 %1, ptr %4, align 4
  %5 = load ptr, ptr %3, align 8
  %6 = getelementptr inbounds %struct.saucy, ptr %5, i32 0, i32 51
  %7 = load i32, ptr %6, align 8
  %8 = icmp ne i32 %7, -1
  br i1 %8, label %9, label %29

9:                                                ; preds = %2
  %10 = load ptr, ptr %3, align 8
  %11 = getelementptr inbounds %struct.saucy, ptr %10, i32 0, i32 51
  %12 = load i32, ptr %11, align 8
  %13 = load ptr, ptr %3, align 8
  %14 = getelementptr inbounds %struct.saucy, ptr %13, i32 0, i32 50
  %15 = load ptr, ptr %14, align 8
  %16 = load i32, ptr %4, align 4
  %17 = sext i32 %16 to i64
  %18 = getelementptr inbounds i32, ptr %15, i64 %17
  store i32 %12, ptr %18, align 4
  %19 = load i32, ptr %4, align 4
  %20 = load ptr, ptr %3, align 8
  %21 = getelementptr inbounds %struct.saucy, ptr %20, i32 0, i32 49
  %22 = load ptr, ptr %21, align 8
  %23 = load ptr, ptr %3, align 8
  %24 = getelementptr inbounds %struct.saucy, ptr %23, i32 0, i32 51
  %25 = load i32, ptr %24, align 8
  %26 = add nsw i32 %25, 1
  store i32 %26, ptr %24, align 8
  %27 = sext i32 %25 to i64
  %28 = getelementptr inbounds i32, ptr %22, i64 %27
  store i32 %19, ptr %28, align 4
  br label %29

29:                                               ; preds = %9, %2
  ret void
}

; Function Attrs: nounwind uwtable
define internal i32 @in_cell_range(ptr noundef %0, i32 noundef %1, i32 noundef %2) #0 {
  %4 = alloca ptr, align 8
  %5 = alloca i32, align 4
  %6 = alloca i32, align 4
  %7 = alloca i32, align 4
  store ptr %0, ptr %4, align 8
  store i32 %1, ptr %5, align 4
  store i32 %2, ptr %6, align 4
  %8 = load i32, ptr %6, align 4
  %9 = load ptr, ptr %4, align 8
  %10 = getelementptr inbounds %struct.coloring, ptr %9, i32 0, i32 3
  %11 = load ptr, ptr %10, align 8
  %12 = load i32, ptr %6, align 4
  %13 = sext i32 %12 to i64
  %14 = getelementptr inbounds i32, ptr %11, i64 %13
  %15 = load i32, ptr %14, align 4
  %16 = add nsw i32 %8, %15
  store i32 %16, ptr %7, align 4
  %17 = load i32, ptr %6, align 4
  %18 = load i32, ptr %5, align 4
  %19 = icmp sle i32 %17, %18
  br i1 %19, label %20, label %24

20:                                               ; preds = %3
  %21 = load i32, ptr %5, align 4
  %22 = load i32, ptr %7, align 4
  %23 = icmp sle i32 %21, %22
  br label %24

24:                                               ; preds = %20, %3
  %25 = phi i1 [ false, %3 ], [ %23, %20 ]
  %26 = zext i1 %25 to i32
  ret i32 %26
}

; Function Attrs: nounwind uwtable
define internal void @remove_diffnon(ptr noundef %0, i32 noundef %1) #0 {
  %3 = alloca ptr, align 8
  %4 = alloca i32, align 4
  %5 = alloca i32, align 4
  store ptr %0, ptr %3, align 8
  store i32 %1, ptr %4, align 4
  %6 = load ptr, ptr %3, align 8
  %7 = getelementptr inbounds %struct.saucy, ptr %6, i32 0, i32 53
  %8 = load ptr, ptr %7, align 8
  %9 = load i32, ptr %4, align 4
  %10 = sext i32 %9 to i64
  %11 = getelementptr inbounds i32, ptr %8, i64 %10
  %12 = load i32, ptr %11, align 4
  %13 = icmp eq i32 %12, -1
  br i1 %13, label %14, label %15

14:                                               ; preds = %2
  br label %58

15:                                               ; preds = %2
  %16 = load ptr, ptr %3, align 8
  %17 = getelementptr inbounds %struct.saucy, ptr %16, i32 0, i32 52
  %18 = load ptr, ptr %17, align 8
  %19 = load ptr, ptr %3, align 8
  %20 = getelementptr inbounds %struct.saucy, ptr %19, i32 0, i32 54
  %21 = load i32, ptr %20, align 8
  %22 = add nsw i32 %21, -1
  store i32 %22, ptr %20, align 8
  %23 = sext i32 %22 to i64
  %24 = getelementptr inbounds i32, ptr %18, i64 %23
  %25 = load i32, ptr %24, align 4
  store i32 %25, ptr %5, align 4
  %26 = load i32, ptr %5, align 4
  %27 = load ptr, ptr %3, align 8
  %28 = getelementptr inbounds %struct.saucy, ptr %27, i32 0, i32 52
  %29 = load ptr, ptr %28, align 8
  %30 = load ptr, ptr %3, align 8
  %31 = getelementptr inbounds %struct.saucy, ptr %30, i32 0, i32 53
  %32 = load ptr, ptr %31, align 8
  %33 = load i32, ptr %4, align 4
  %34 = sext i32 %33 to i64
  %35 = getelementptr inbounds i32, ptr %32, i64 %34
  %36 = load i32, ptr %35, align 4
  %37 = sext i32 %36 to i64
  %38 = getelementptr inbounds i32, ptr %29, i64 %37
  store i32 %26, ptr %38, align 4
  %39 = load ptr, ptr %3, align 8
  %40 = getelementptr inbounds %struct.saucy, ptr %39, i32 0, i32 53
  %41 = load ptr, ptr %40, align 8
  %42 = load i32, ptr %4, align 4
  %43 = sext i32 %42 to i64
  %44 = getelementptr inbounds i32, ptr %41, i64 %43
  %45 = load i32, ptr %44, align 4
  %46 = load ptr, ptr %3, align 8
  %47 = getelementptr inbounds %struct.saucy, ptr %46, i32 0, i32 53
  %48 = load ptr, ptr %47, align 8
  %49 = load i32, ptr %5, align 4
  %50 = sext i32 %49 to i64
  %51 = getelementptr inbounds i32, ptr %48, i64 %50
  store i32 %45, ptr %51, align 4
  %52 = load ptr, ptr %3, align 8
  %53 = getelementptr inbounds %struct.saucy, ptr %52, i32 0, i32 53
  %54 = load ptr, ptr %53, align 8
  %55 = load i32, ptr %4, align 4
  %56 = sext i32 %55 to i64
  %57 = getelementptr inbounds i32, ptr %54, i64 %56
  store i32 -1, ptr %57, align 4
  br label %58

58:                                               ; preds = %15, %14
  ret void
}

; Function Attrs: nounwind uwtable
define internal void @add_diff(ptr noundef %0, i32 noundef %1) #0 {
  %3 = alloca ptr, align 8
  %4 = alloca i32, align 4
  store ptr %0, ptr %3, align 8
  store i32 %1, ptr %4, align 4
  %5 = load ptr, ptr %3, align 8
  %6 = getelementptr inbounds %struct.saucy, ptr %5, i32 0, i32 41
  %7 = load ptr, ptr %6, align 8
  %8 = load i32, ptr %4, align 4
  %9 = sext i32 %8 to i64
  %10 = getelementptr inbounds i8, ptr %7, i64 %9
  %11 = load i8, ptr %10, align 1
  %12 = icmp ne i8 %11, 0
  br i1 %12, label %32, label %13

13:                                               ; preds = %2
  %14 = load ptr, ptr %3, align 8
  %15 = getelementptr inbounds %struct.saucy, ptr %14, i32 0, i32 41
  %16 = load ptr, ptr %15, align 8
  %17 = load i32, ptr %4, align 4
  %18 = sext i32 %17 to i64
  %19 = getelementptr inbounds i8, ptr %16, i64 %18
  store i8 1, ptr %19, align 1
  %20 = load i32, ptr %4, align 4
  %21 = load ptr, ptr %3, align 8
  %22 = getelementptr inbounds %struct.saucy, ptr %21, i32 0, i32 42
  %23 = load ptr, ptr %22, align 8
  %24 = load ptr, ptr %3, align 8
  %25 = getelementptr inbounds %struct.saucy, ptr %24, i32 0, i32 44
  %26 = load i32, ptr %25, align 8
  %27 = add nsw i32 %26, 1
  store i32 %27, ptr %25, align 8
  %28 = sext i32 %26 to i64
  %29 = getelementptr inbounds i32, ptr %23, i64 %28
  store i32 %20, ptr %29, align 4
  %30 = load ptr, ptr %3, align 8
  %31 = load i32, ptr %4, align 4
  call void @add_diffnon(ptr noundef %30, i32 noundef %31)
  br label %32

32:                                               ; preds = %13, %2
  ret void
}

; Function Attrs: nounwind uwtable
define internal void @fix_diff_singleton(ptr noundef %0, i32 noundef %1) #0 {
  %3 = alloca ptr, align 8
  %4 = alloca i32, align 4
  %5 = alloca i32, align 4
  %6 = alloca i32, align 4
  %7 = alloca i32, align 4
  store ptr %0, ptr %3, align 8
  store i32 %1, ptr %4, align 4
  %8 = load ptr, ptr %3, align 8
  %9 = getelementptr inbounds %struct.saucy, ptr %8, i32 0, i32 6
  %10 = getelementptr inbounds %struct.coloring, ptr %9, i32 0, i32 0
  %11 = load ptr, ptr %10, align 8
  %12 = load i32, ptr %4, align 4
  %13 = sext i32 %12 to i64
  %14 = getelementptr inbounds i32, ptr %11, i64 %13
  %15 = load i32, ptr %14, align 4
  store i32 %15, ptr %5, align 4
  %16 = load ptr, ptr %3, align 8
  %17 = getelementptr inbounds %struct.saucy, ptr %16, i32 0, i32 5
  %18 = getelementptr inbounds %struct.coloring, ptr %17, i32 0, i32 0
  %19 = load ptr, ptr %18, align 8
  %20 = load i32, ptr %4, align 4
  %21 = sext i32 %20 to i64
  %22 = getelementptr inbounds i32, ptr %19, i64 %21
  %23 = load i32, ptr %22, align 4
  store i32 %23, ptr %6, align 4
  %24 = load ptr, ptr %3, align 8
  %25 = getelementptr inbounds %struct.saucy, ptr %24, i32 0, i32 6
  %26 = getelementptr inbounds %struct.coloring, ptr %25, i32 0, i32 3
  %27 = load ptr, ptr %26, align 8
  %28 = load i32, ptr %4, align 4
  %29 = sext i32 %28 to i64
  %30 = getelementptr inbounds i32, ptr %27, i64 %29
  %31 = load i32, ptr %30, align 4
  %32 = icmp ne i32 %31, 0
  br i1 %32, label %93, label %33

33:                                               ; preds = %2
  %34 = load i32, ptr %5, align 4
  %35 = load i32, ptr %6, align 4
  %36 = icmp ne i32 %34, %35
  br i1 %36, label %37, label %93

37:                                               ; preds = %33
  %38 = load ptr, ptr %3, align 8
  %39 = load i32, ptr %5, align 4
  call void @add_diff(ptr noundef %38, i32 noundef %39)
  %40 = load ptr, ptr %3, align 8
  %41 = getelementptr inbounds %struct.saucy, ptr %40, i32 0, i32 46
  %42 = load i32, ptr %41, align 8
  %43 = add nsw i32 %42, 1
  store i32 %43, ptr %41, align 8
  %44 = load ptr, ptr %3, align 8
  %45 = load i32, ptr %5, align 4
  call void @remove_diffnon(ptr noundef %44, i32 noundef %45)
  %46 = load ptr, ptr %3, align 8
  %47 = getelementptr inbounds %struct.saucy, ptr %46, i32 0, i32 6
  %48 = getelementptr inbounds %struct.coloring, ptr %47, i32 0, i32 2
  %49 = load ptr, ptr %48, align 8
  %50 = load i32, ptr %6, align 4
  %51 = sext i32 %50 to i64
  %52 = getelementptr inbounds i32, ptr %49, i64 %51
  %53 = load i32, ptr %52, align 4
  store i32 %53, ptr %7, align 4
  %54 = load ptr, ptr %3, align 8
  %55 = getelementptr inbounds %struct.saucy, ptr %54, i32 0, i32 6
  %56 = getelementptr inbounds %struct.coloring, ptr %55, i32 0, i32 3
  %57 = load ptr, ptr %56, align 8
  %58 = load i32, ptr %7, align 4
  %59 = sext i32 %58 to i64
  %60 = getelementptr inbounds i32, ptr %57, i64 %59
  %61 = load i32, ptr %60, align 4
  %62 = icmp ne i32 %61, 0
  br i1 %62, label %63, label %83

63:                                               ; preds = %37
  %64 = load ptr, ptr %3, align 8
  %65 = load i32, ptr %6, align 4
  call void @add_diff(ptr noundef %64, i32 noundef %65)
  %66 = load ptr, ptr %3, align 8
  %67 = getelementptr inbounds %struct.saucy, ptr %66, i32 0, i32 6
  %68 = load ptr, ptr %3, align 8
  %69 = getelementptr inbounds %struct.saucy, ptr %68, i32 0, i32 5
  %70 = getelementptr inbounds %struct.coloring, ptr %69, i32 0, i32 1
  %71 = load ptr, ptr %70, align 8
  %72 = load i32, ptr %5, align 4
  %73 = sext i32 %72 to i64
  %74 = getelementptr inbounds i32, ptr %71, i64 %73
  %75 = load i32, ptr %74, align 4
  %76 = load i32, ptr %7, align 4
  %77 = call i32 @in_cell_range(ptr noundef %67, i32 noundef %75, i32 noundef %76)
  %78 = icmp ne i32 %77, 0
  br i1 %78, label %79, label %82

79:                                               ; preds = %63
  %80 = load ptr, ptr %3, align 8
  %81 = load i32, ptr %6, align 4
  call void @add_pair(ptr noundef %80, i32 noundef %81)
  br label %82

82:                                               ; preds = %79, %63
  br label %92

83:                                               ; preds = %37
  %84 = load ptr, ptr %3, align 8
  %85 = load i32, ptr %5, align 4
  %86 = call i32 @is_a_pair(ptr noundef %84, i32 noundef %85)
  %87 = icmp ne i32 %86, 0
  br i1 %87, label %88, label %91

88:                                               ; preds = %83
  %89 = load ptr, ptr %3, align 8
  %90 = load i32, ptr %5, align 4
  call void @eat_pair(ptr noundef %89, i32 noundef %90)
  br label %91

91:                                               ; preds = %88, %83
  br label %92

92:                                               ; preds = %91, %82
  br label %93

93:                                               ; preds = %92, %33, %2
  ret void
}