; Function Attrs: mustprogress nofree norecurse nosync nounwind willreturn memory(readwrite, inaccessiblemem: none) uwtable
define internal fastcc void @fix_diff_singleton(ptr noundef captures(none) %0, i32 noundef %1) unnamed_addr #16 {
  %3 = getelementptr inbounds nuw i8, ptr %0, i64 72
  %4 = load ptr, ptr %3, align 8
  %5 = sext i32 %1 to i64
  %6 = getelementptr inbounds i32, ptr %4, i64 %5
  %7 = load i32, ptr %6, align 4
  %8 = getelementptr inbounds nuw i8, ptr %0, i64 40
  %9 = load ptr, ptr %8, align 8
  %10 = getelementptr inbounds i32, ptr %9, i64 %5
  %11 = load i32, ptr %10, align 4
  %12 = getelementptr i8, ptr %0, i64 96
  %13 = load ptr, ptr %12, align 8
  %14 = getelementptr inbounds i32, ptr %13, i64 %5
  %15 = load i32, ptr %14, align 4
  %.not = icmp ne i32 %15, 0
  %.not29 = icmp eq i32 %7, %11
  %or.cond = select i1 %.not, i1 true, i1 %.not29
  br i1 %or.cond, label %add_pair.exit, label %16

16:                                               ; preds = %2
  %17 = getelementptr inbounds nuw i8, ptr %0, i64 352
  %18 = load ptr, ptr %17, align 8
  %19 = sext i32 %7 to i64
  %20 = getelementptr inbounds i8, ptr %18, i64 %19
  %21 = load i8, ptr %20, align 1
  %.not.i = icmp eq i8 %21, 0
  br i1 %.not.i, label %22, label %add_diff.exit

22:                                               ; preds = %16
  store i8 1, ptr %20, align 1
  %23 = getelementptr inbounds nuw i8, ptr %0, i64 360
  %24 = load ptr, ptr %23, align 8
  %25 = getelementptr inbounds nuw i8, ptr %0, i64 376
  %26 = load i32, ptr %25, align 8
  %27 = add nsw i32 %26, 1
  store i32 %27, ptr %25, align 8
  %28 = sext i32 %26 to i64
  %29 = getelementptr inbounds i32, ptr %24, i64 %28
  store i32 %7, ptr %29, align 4
  %30 = getelementptr inbounds nuw i8, ptr %0, i64 456
  %31 = load i32, ptr %30, align 8
  %32 = icmp eq i32 %31, -1
  br i1 %32, label %add_diff.exit, label %33

33:                                               ; preds = %22
  %34 = getelementptr inbounds nuw i8, ptr %0, i64 448
  %35 = load ptr, ptr %34, align 8
  %36 = getelementptr inbounds i32, ptr %35, i64 %19
  store i32 %31, ptr %36, align 4
  %37 = getelementptr inbounds nuw i8, ptr %0, i64 440
  %38 = load ptr, ptr %37, align 8
  %39 = load i32, ptr %30, align 8
  %40 = add nsw i32 %39, 1
  store i32 %40, ptr %30, align 8
  %41 = sext i32 %39 to i64
  %42 = getelementptr inbounds i32, ptr %38, i64 %41
  store i32 %7, ptr %42, align 4
  br label %add_diff.exit

add_diff.exit:                                    ; preds = %16, %22, %33
  %43 = getelementptr inbounds nuw i8, ptr %0, i64 392
  %44 = load i32, ptr %43, align 8
  %45 = add nsw i32 %44, 1
  store i32 %45, ptr %43, align 8
  %46 = getelementptr inbounds nuw i8, ptr %0, i64 448
  %47 = load ptr, ptr %46, align 8
  %48 = getelementptr inbounds i32, ptr %47, i64 %19
  %49 = load i32, ptr %48, align 4
  %50 = icmp eq i32 %49, -1
  br i1 %50, label %remove_diffnon.exit, label %51

51:                                               ; preds = %add_diff.exit
  %52 = getelementptr inbounds nuw i8, ptr %0, i64 440
  %53 = load ptr, ptr %52, align 8
  %54 = getelementptr inbounds nuw i8, ptr %0, i64 456
  %55 = load i32, ptr %54, align 8
  %56 = add nsw i32 %55, -1
  store i32 %56, ptr %54, align 8
  %57 = sext i32 %56 to i64
  %58 = getelementptr inbounds i32, ptr %53, i64 %57
  %59 = load i32, ptr %58, align 4
  %60 = load i32, ptr %48, align 4
  %61 = sext i32 %60 to i64
  %62 = getelementptr inbounds i32, ptr %53, i64 %61
  store i32 %59, ptr %62, align 4
  %63 = load ptr, ptr %46, align 8
  %64 = getelementptr inbounds i32, ptr %63, i64 %19
  %65 = load i32, ptr %64, align 4
  %66 = sext i32 %59 to i64
  %67 = getelementptr inbounds i32, ptr %63, i64 %66
  store i32 %65, ptr %67, align 4
  %68 = load ptr, ptr %46, align 8
  %69 = getelementptr inbounds i32, ptr %68, i64 %19
  store i32 -1, ptr %69, align 4
  br label %remove_diffnon.exit

remove_diffnon.exit:                              ; preds = %add_diff.exit, %51
  %70 = getelementptr inbounds nuw i8, ptr %0, i64 88
  %71 = load ptr, ptr %70, align 8
  %72 = sext i32 %11 to i64
  %73 = getelementptr inbounds i32, ptr %71, i64 %72
  %74 = load i32, ptr %73, align 4
  %75 = load ptr, ptr %12, align 8
  %76 = sext i32 %74 to i64
  %77 = getelementptr inbounds i32, ptr %75, i64 %76
  %78 = load i32, ptr %77, align 4
  %.not30 = icmp eq i32 %78, 0
  br i1 %.not30, label %125, label %79

79:                                               ; preds = %remove_diffnon.exit
  %80 = load ptr, ptr %17, align 8
  %81 = getelementptr inbounds i8, ptr %80, i64 %72
  %82 = load i8, ptr %81, align 1
  %.not.i34 = icmp eq i8 %82, 0
  br i1 %.not.i34, label %83, label %add_diff.exit35

83:                                               ; preds = %79
  store i8 1, ptr %81, align 1
  %84 = getelementptr inbounds nuw i8, ptr %0, i64 360
  %85 = load ptr, ptr %84, align 8
  %86 = getelementptr inbounds nuw i8, ptr %0, i64 376
  %87 = load i32, ptr %86, align 8
  %88 = add nsw i32 %87, 1
  store i32 %88, ptr %86, align 8
  %89 = sext i32 %87 to i64
  %90 = getelementptr inbounds i32, ptr %85, i64 %89
  store i32 %11, ptr %90, align 4
  %91 = getelementptr inbounds nuw i8, ptr %0, i64 456
  %92 = load i32, ptr %91, align 8
  %93 = icmp eq i32 %92, -1
  br i1 %93, label %add_diff.exit35, label %94

94:                                               ; preds = %83
  %95 = load ptr, ptr %46, align 8
  %96 = getelementptr inbounds i32, ptr %95, i64 %72
  store i32 %92, ptr %96, align 4
  %97 = getelementptr inbounds nuw i8, ptr %0, i64 440
  %98 = load ptr, ptr %97, align 8
  %99 = load i32, ptr %91, align 8
  %100 = add nsw i32 %99, 1
  store i32 %100, ptr %91, align 8
  %101 = sext i32 %99 to i64
  %102 = getelementptr inbounds i32, ptr %98, i64 %101
  store i32 %11, ptr %102, align 4
  br label %add_diff.exit35

add_diff.exit35:                                  ; preds = %79, %83, %94
  %103 = getelementptr inbounds nuw i8, ptr %0, i64 48
  %104 = load ptr, ptr %103, align 8
  %105 = getelementptr inbounds i32, ptr %104, i64 %19
  %106 = load i32, ptr %105, align 4
  %.val = load ptr, ptr %12, align 8
  %107 = getelementptr inbounds i32, ptr %.val, i64 %76
  %108 = load i32, ptr %107, align 4
  %109 = add nsw i32 %108, %74
  %110 = icmp sgt i32 %74, %106
  %111 = icmp sgt i32 %106, %109
  %.not39 = select i1 %110, i1 true, i1 %111
  br i1 %.not39, label %add_pair.exit, label %112

112:                                              ; preds = %add_diff.exit35
  %113 = getelementptr inbounds nuw i8, ptr %0, i64 432
  %114 = load i32, ptr %113, align 8
  %.not.i36 = icmp eq i32 %114, -1
  br i1 %.not.i36, label %add_pair.exit, label %115

115:                                              ; preds = %112
  %116 = getelementptr inbounds nuw i8, ptr %0, i64 424
  %117 = load ptr, ptr %116, align 8
  %118 = getelementptr inbounds i32, ptr %117, i64 %72
  store i32 %114, ptr %118, align 4
  %119 = getelementptr inbounds nuw i8, ptr %0, i64 416
  %120 = load ptr, ptr %119, align 8
  %121 = load i32, ptr %113, align 8
  %122 = add nsw i32 %121, 1
  store i32 %122, ptr %113, align 8
  %123 = sext i32 %121 to i64
  %124 = getelementptr inbounds i32, ptr %120, i64 %123
  store i32 %11, ptr %124, align 4
  br label %add_pair.exit

125:                                              ; preds = %remove_diffnon.exit
  %126 = getelementptr i8, ptr %0, i64 424
  %.val33 = load ptr, ptr %126, align 8
  %127 = getelementptr inbounds i32, ptr %.val33, i64 %19
  %128 = load i32, ptr %127, align 4
  %.not40 = icmp eq i32 %128, -1
  br i1 %.not40, label %add_pair.exit, label %129

129:                                              ; preds = %125
  %130 = getelementptr inbounds nuw i8, ptr %0, i64 416
  %131 = load ptr, ptr %130, align 8
  %132 = getelementptr inbounds nuw i8, ptr %0, i64 432
  %133 = load i32, ptr %132, align 8
  %134 = add nsw i32 %133, -1
  store i32 %134, ptr %132, align 8
  %135 = sext i32 %134 to i64
  %136 = getelementptr inbounds i32, ptr %131, i64 %135
  %137 = load i32, ptr %136, align 4
  %138 = load i32, ptr %127, align 4
  %139 = sext i32 %138 to i64
  %140 = getelementptr inbounds i32, ptr %131, i64 %139
  store i32 %137, ptr %140, align 4
  %141 = load ptr, ptr %126, align 8
  %142 = getelementptr inbounds i32, ptr %141, i64 %19
  %143 = load i32, ptr %142, align 4
  %144 = sext i32 %137 to i64
  %145 = getelementptr inbounds i32, ptr %141, i64 %144
  store i32 %143, ptr %145, align 4
  %146 = load ptr, ptr %126, align 8
  %147 = getelementptr inbounds i32, ptr %146, i64 %19
  store i32 -1, ptr %147, align 4
  br label %add_pair.exit

add_pair.exit:                                    ; preds = %115, %112, %add_diff.exit35, %129, %125, %2
  ret void
}